target datalayout = "e-m:e-p270:32:32-p271:32:32-p272:64:64-i64:64-i128:128-f80:128-n8:16:32:64-S128"
target triple = "x86_64-pc-linux-gnu"

%struct.multi_pack_index = type { ptr, ptr, i64, ptr, ptr, i64, i32, i8, i8, i8, i32, i32, i32, i32, i32, ptr, i64, ptr, i64, ptr, ptr, ptr, ptr, i64, ptr, i64, ptr, i32, i32, ptr, ptr, ptr, [0 x i8] }

@.str.11 = private unnamed_addr constant [4 x i8] c"idx\00", align 1
@.str.12 = private unnamed_addr constant [5 x i8] c"pack\00", align 1

; Function Attrs: nounwind uwtable
define dso_local i32 @cmp_idx_or_pack_name(ptr noundef %0, ptr noundef %1) #0 {
  %3 = alloca i32, align 4
  %4 = alloca ptr, align 8
  %5 = alloca ptr, align 8
  store ptr %0, ptr %4, align 8, !tbaa !9
  store ptr %1, ptr %5, align 8, !tbaa !9
  br label %6

6:                                                ; preds = %21, %2
  %7 = load ptr, ptr %5, align 8, !tbaa !9
  %8 = load i8, ptr %7, align 1, !tbaa !49
  %9 = sext i8 %8 to i32
  %10 = icmp ne i32 %9, 0
  br i1 %10, label %11, label %19

11:                                               ; preds = %6
  %12 = load ptr, ptr %5, align 8, !tbaa !9
  %13 = load i8, ptr %12, align 1, !tbaa !49
  %14 = sext i8 %13 to i32
  %15 = load ptr, ptr %4, align 8, !tbaa !9
  %16 = load i8, ptr %15, align 1, !tbaa !49
  %17 = sext i8 %16 to i32
  %18 = icmp eq i32 %14, %17
  br label %19

19:                                               ; preds = %11, %6
  %20 = phi i1 [ false, %6 ], [ %18, %11 ]
  br i1 %20, label %21, label %26

21:                                               ; preds = %19
  %22 = load ptr, ptr %5, align 8, !tbaa !9
  %23 = getelementptr inbounds nuw i8, ptr %22, i32 1
  store ptr %23, ptr %5, align 8, !tbaa !9
  %24 = load ptr, ptr %4, align 8, !tbaa !9
  %25 = getelementptr inbounds nuw i8, ptr %24, i32 1
  store ptr %25, ptr %4, align 8, !tbaa !9
  br label %6, !llvm.loop !96

26:                                               ; preds = %19
  %27 = load ptr, ptr %5, align 8, !tbaa !9
  %28 = call i32 @strcmp(ptr noundef %27, ptr noundef @.str.11) #12
  %29 = icmp ne i32 %28, 0
  br i1 %29, label %35, label %30

30:                                               ; preds = %26
  %31 = load ptr, ptr %4, align 8, !tbaa !9
  %32 = call i32 @strcmp(ptr noundef %31, ptr noundef @.str.12) #12
  %33 = icmp ne i32 %32, 0
  br i1 %33, label %35, label %34

34:                                               ; preds = %30
  store i32 0, ptr %3, align 4
  br label %39

35:                                               ; preds = %30, %26
  %36 = load ptr, ptr %4, align 8, !tbaa !9
  %37 = load ptr, ptr %5, align 8, !tbaa !9
  %38 = call i32 @strcmp(ptr noundef %36, ptr noundef %37) #12
  store i32 %38, ptr %3, align 4
  br label %39

39:                                               ; preds = %35, %34
  %40 = load i32, ptr %3, align 4
  ret i32 %40
}

; Function Attrs: nounwind uwtable
define internal i32 @midx_contains_pack_1(ptr noundef %0, ptr noundef %1) #0 {
  %3 = alloca i32, align 4
  %4 = alloca ptr, align 8
  %5 = alloca ptr, align 8
  %6 = alloca i32, align 4
  %7 = alloca i32, align 4
  %8 = alloca i32, align 4
  %9 = alloca ptr, align 8
  %10 = alloca i32, align 4
  %11 = alloca i32, align 4
  store ptr %0, ptr %4, align 8, !tbaa !4
  store ptr %1, ptr %5, align 8, !tbaa !9
  call void @llvm.lifetime.start.p0(i64 4, ptr %6) #13
  store i32 0, ptr %6, align 4, !tbaa !40
  call void @llvm.lifetime.start.p0(i64 4, ptr %7) #13
  %12 = load ptr, ptr %4, align 8, !tbaa !4
  %13 = getelementptr inbounds nuw %struct.multi_pack_index, ptr %12, i32 0, i32 10
  %14 = load i32, ptr %13, align 8, !tbaa !40
  store i32 %14, ptr %7, align 4, !tbaa !40
  br label %15

15:                                               ; preds = %49, %47, %2
  %16 = load i32, ptr %6, align 4, !tbaa !40
  %17 = load i32, ptr %7, align 4, !tbaa !40
  %18 = icmp ult i32 %16, %17
  br i1 %18, label %19, label %50

19:                                               ; preds = %15
  call void @llvm.lifetime.start.p0(i64 4, ptr %8) #13
  %20 = load i32, ptr %6, align 4, !tbaa !40
  %21 = load i32, ptr %7, align 4, !tbaa !40
  %22 = load i32, ptr %6, align 4, !tbaa !40
  %23 = sub i32 %21, %22
  %24 = udiv i32 %23, 2
  %25 = add i32 %20, %24
  store i32 %25, ptr %8, align 4, !tbaa !40
  call void @llvm.lifetime.start.p0(i64 8, ptr %9) #13
  call void @llvm.lifetime.start.p0(i64 4, ptr %10) #13
  %26 = load ptr, ptr %4, align 8, !tbaa !4
  %27 = getelementptr inbounds nuw %struct.multi_pack_index, ptr %26, i32 0, i32 29
  %28 = load ptr, ptr %27, align 8, !tbaa !50
  %29 = load i32, ptr %8, align 4, !tbaa !40
  %30 = zext i32 %29 to i64
  %31 = getelementptr inbounds nuw ptr, ptr %28, i64 %30
  %32 = load ptr, ptr %31, align 8, !tbaa !9
  store ptr %32, ptr %9, align 8, !tbaa !9
  %33 = load ptr, ptr %5, align 8, !tbaa !9
  %34 = load ptr, ptr %9, align 8, !tbaa !9
  %35 = call i32 @cmp_idx_or_pack_name(ptr noundef %33, ptr noundef %34)
  store i32 %35, ptr %10, align 4, !tbaa !40
  %36 = load i32, ptr %10, align 4, !tbaa !40
  %37 = icmp ne i32 %36, 0
  br i1 %37, label %39, label %38

38:                                               ; preds = %19
  store i32 1, ptr %3, align 4
  store i32 1, ptr %11, align 4
  br label %47

39:                                               ; preds = %19
  %40 = load i32, ptr %10, align 4, !tbaa !40
  %41 = icmp sgt i32 %40, 0
  br i1 %41, label %42, label %45

42:                                               ; preds = %39
  %43 = load i32, ptr %8, align 4, !tbaa !40
  %44 = add i32 %43, 1
  store i32 %44, ptr %6, align 4, !tbaa !40
  store i32 2, ptr %11, align 4
  br label %47, !llvm.loop !98

45:                                               ; preds = %39
  %46 = load i32, ptr %8, align 4, !tbaa !40
  store i32 %46, ptr %7, align 4, !tbaa !40
  store i32 0, ptr %11, align 4
  br label %47

47:                                               ; preds = %45, %42, %38
  call void @llvm.lifetime.end.p0(i64 4, ptr %10) #13
  call void @llvm.lifetime.end.p0(i64 8, ptr %9) #13
  call void @llvm.lifetime.end.p0(i64 4, ptr %8) #13
  %48 = load i32, ptr %11, align 4
  switch i32 %48, label %51 [
    i32 0, label %49
    i32 2, label %15
  ]

49:                                               ; preds = %47
  br label %15, !llvm.loop !98

50:                                               ; preds = %15
  store i32 0, ptr %3, align 4
  store i32 1, ptr %11, align 4
  br label %51

51:                                               ; preds = %50, %47
  call void @llvm.lifetime.end.p0(i64 4, ptr %7) #13
  call void @llvm.lifetime.end.p0(i64 4, ptr %6) #13
  %52 = load i32, ptr %3, align 4
  ret i32 %52
}

; Function Attrs: nounwind uwtable
define dso_local i32 @midx_contains_pack(ptr noundef %0, ptr noundef %1) #0 {
  %3 = alloca i32, align 4
  %4 = alloca ptr, align 8
  %5 = alloca ptr, align 8
  store ptr %0, ptr %4, align 8, !tbaa !4
  store ptr %1, ptr %5, align 8, !tbaa !9
  br label %6

6:                                                ; preds = %16, %2
  %7 = load ptr, ptr %4, align 8, !tbaa !4
  %8 = icmp ne ptr %7, null
  br i1 %8, label %9, label %20

9:                                                ; preds = %6
  %10 = load ptr, ptr %4, align 8, !tbaa !4
  %11 = load ptr, ptr %5, align 8, !tbaa !9
  %12 = call i32 @midx_contains_pack_1(ptr noundef %10, ptr noundef %11)
  %13 = icmp ne i32 %12, 0
  br i1 %13, label %14, label %15

14:                                               ; preds = %9
  store i32 1, ptr %3, align 4
  br label %21

15:                                               ; preds = %9
  br label %16

16:                                               ; preds = %15
  %17 = load ptr, ptr %4, align 8, !tbaa !4
  %18 = getelementptr inbounds nuw %struct.multi_pack_index, ptr %17, i32 0, i32 26
  %19 = load ptr, ptr %18, align 8, !tbaa !4
  store ptr %19, ptr %4, align 8, !tbaa !4
  br label %6, !llvm.loop !97

20:                                               ; preds = %6
  store i32 0, ptr %3, align 4
  br label %21

21:                                               ; preds = %20, %14
  %22 = load i32, ptr %3, align 4
  ret i32 %22
}