; Function Attrs: nofree nounwind memory(read, inaccessiblemem: none) uwtable
define dso_local range(i32 0, 2) i32 @midx_contains_pack(ptr noundef readonly %0, ptr noundef readonly captures(none) %1) local_unnamed_addr #11 {
  %.not9 = icmp eq ptr %0, null
  br i1 %.not9, label %midx_contains_pack_1.exit, label %.lr.ph

.lr.ph:                                           ; preds = %2, %.loopexit
  %.0410 = phi ptr [ %31, %.loopexit ], [ %0, %2 ]
  %3 = getelementptr inbounds nuw i8, ptr %.0410, i64 56
  %4 = load i32, ptr %3, align 8, !tbaa !41
  %.not32.i = icmp eq i32 %4, 0
  br i1 %.not32.i, label %.loopexit, label %.lr.ph.i

.lr.ph.i:                                         ; preds = %.lr.ph
  %5 = getelementptr inbounds nuw i8, ptr %.0410, i64 184
  %6 = load ptr, ptr %5, align 8, !tbaa !48
  br label %7

7:                                                ; preds = %26, %.lr.ph.i
  %.01628.i = phi i32 [ 0, %.lr.ph.i ], [ %spec.select26.i, %26 ]
  %.01827.i = phi i32 [ %4, %.lr.ph.i ], [ %spec.select.i, %26 ]
  %8 = sub nuw i32 %.01827.i, %.01628.i
  %9 = lshr i32 %8, 1
  %10 = add i32 %9, %.01628.i
  %11 = zext i32 %10 to i64
  %12 = getelementptr inbounds nuw ptr, ptr %6, i64 %11
  %13 = load ptr, ptr %12, align 8, !tbaa !4
  %14 = load i8, ptr %13, align 1, !tbaa !43
  %.not14.i.i = icmp eq i8 %14, 0
  br i1 %.not14.i.i, label %.critedge.i.i, label %.lr.ph.i.i

.lr.ph.i.i:                                       ; preds = %7, %18
  %15 = phi i8 [ %21, %18 ], [ %14, %7 ]
  %.016.i.i = phi ptr [ %19, %18 ], [ %13, %7 ]
  %.0915.i.i = phi ptr [ %20, %18 ], [ %1, %7 ]
  %16 = load i8, ptr %.0915.i.i, align 1, !tbaa !43
  %17 = icmp eq i8 %15, %16
  br i1 %17, label %18, label %.critedge.i.i

18:                                               ; preds = %.lr.ph.i.i
  %19 = getelementptr inbounds nuw i8, ptr %.016.i.i, i64 1
  %20 = getelementptr inbounds nuw i8, ptr %.0915.i.i, i64 1
  %21 = load i8, ptr %19, align 1, !tbaa !43
  %.not.i.i = icmp eq i8 %21, 0
  br i1 %.not.i.i, label %.critedge.i.i, label %.lr.ph.i.i, !llvm.loop !86

.critedge.i.i:                                    ; preds = %18, %.lr.ph.i.i, %7
  %.09.lcssa.i.i = phi ptr [ %1, %7 ], [ %20, %18 ], [ %.0915.i.i, %.lr.ph.i.i ]
  %.0.lcssa.i.i = phi ptr [ %13, %7 ], [ %19, %18 ], [ %.016.i.i, %.lr.ph.i.i ]
  %22 = tail call i32 @strcmp(ptr noundef nonnull dereferenceable(1) %.0.lcssa.i.i, ptr noundef nonnull dereferenceable(4) @.str.11) #25
  %.not12.i.i = icmp eq i32 %22, 0
  br i1 %.not12.i.i, label %23, label %cmp_idx_or_pack_name.exit.i

23:                                               ; preds = %.critedge.i.i
  %24 = tail call i32 @strcmp(ptr noundef nonnull dereferenceable(1) %.09.lcssa.i.i, ptr noundef nonnull dereferenceable(5) @.str.12) #25
  %.not13.i.i = icmp eq i32 %24, 0
  br i1 %.not13.i.i, label %midx_contains_pack_1.exit, label %cmp_idx_or_pack_name.exit.i

cmp_idx_or_pack_name.exit.i:                      ; preds = %23, %.critedge.i.i
  %25 = tail call i32 @strcmp(ptr noundef nonnull dereferenceable(1) %.09.lcssa.i.i, ptr noundef nonnull dereferenceable(1) %.0.lcssa.i.i) #25
  %.not.i = icmp eq i32 %25, 0
  br i1 %.not.i, label %midx_contains_pack_1.exit, label %26

26:                                               ; preds = %cmp_idx_or_pack_name.exit.i
  %27 = icmp sgt i32 %25, 0
  %28 = add i32 %10, 1
  %spec.select.i = select i1 %27, i32 %.01827.i, i32 %10
  %spec.select26.i = select i1 %27, i32 %28, i32 %.01628.i
  %29 = icmp ult i32 %spec.select26.i, %spec.select.i
  br i1 %29, label %7, label %.loopexit

.loopexit:                                        ; preds = %26, %.lr.ph
  %30 = getelementptr inbounds nuw i8, ptr %.0410, i64 168
  %31 = load ptr, ptr %30, align 8, !tbaa !44
  %.not = icmp eq ptr %31, null
  br i1 %.not, label %midx_contains_pack_1.exit, label %.lr.ph, !llvm.loop !87

midx_contains_pack_1.exit:                        ; preds = %.loopexit, %cmp_idx_or_pack_name.exit.i, %23, %2
  %.0 = phi i32 [ 0, %2 ], [ 1, %23 ], [ 1, %cmp_idx_or_pack_name.exit.i ], [ 0, %.loopexit ]
  ret i32 %.0
}